; ModuleID = '29/1718.c'
source_filename = "29/1718.c"
target datalayout = "e-m:e-p270:32:32-p271:32:32-p272:64:64-i64:64-f80:128-n8:16:32:64-S128"
target triple = "x86_64-pc-linux-gnu"

@.str = private unnamed_addr constant [3 x i8] c"%d\00", align 1
@.str.1 = private unnamed_addr constant [7 x i8] c"%.3lf\0A\00", align 1

; Function Attrs: noinline nounwind uwtable
define dso_local i32 @main() #0 {
  %1 = alloca i32, align 4
  %2 = alloca i32, align 4
  %3 = alloca i32, align 4
  %4 = alloca i32, align 4
  %5 = alloca i32, align 4
  %6 = alloca i32, align 4
  %7 = alloca i32, align 4
  %8 = alloca double, align 8
  store i32 0, i32* %1, align 4
  %9 = call i32 (i8*, ...) @__isoc99_scanf(i8* getelementptr inbounds ([3 x i8], [3 x i8]* @.str, i64 0, i64 0), i32* %2)
  store i32 0, i32* %4, align 4
  br label %10

10:                                               ; preds = %37, %0
  %11 = load i32, i32* %4, align 4
  %12 = load i32, i32* %2, align 4
  %13 = icmp slt i32 %11, %12
  br i1 %13, label %14, label %42

14:                                               ; preds = %10
  store double 0.000000e+00, double* %8, align 8
  store i32 0, i32* %5, align 4
  store i32 2, i32* %6, align 4
  store i32 1, i32* %7, align 4
  %15 = call i32 (i8*, ...) @__isoc99_scanf(i8* getelementptr inbounds ([3 x i8], [3 x i8]* @.str, i64 0, i64 0), i32* %3)
  br label %16

16:                                               ; preds = %20, %14
  %17 = load i32, i32* %5, align 4
  %18 = load i32, i32* %3, align 4
  %19 = icmp slt i32 %17, %18
  br i1 %19, label %20, label %37

20:                                               ; preds = %16
  %21 = load i32, i32* %6, align 4
  %22 = sitofp i32 %21 to double
  %23 = fmul double 1.000000e+00, %22
  %24 = load i32, i32* %7, align 4
  %25 = sitofp i32 %24 to double
  %26 = fdiv double %23, %25
  %27 = load double, double* %8, align 8
  %28 = fadd double %27, %26
  store double %28, double* %8, align 8
  %29 = load i32, i32* %6, align 4
  %30 = load i32, i32* %7, align 4
  %31 = add nsw i32 %29, %30
  store i32 %31, i32* %6, align 4
  %32 = load i32, i32* %6, align 4
  %33 = load i32, i32* %7, align 4
  %34 = sub nsw i32 %32, %33
  store i32 %34, i32* %7, align 4
  %35 = load i32, i32* %5, align 4
  %36 = add nsw i32 %35, 1
  store i32 %36, i32* %5, align 4
  br label %16

37:                                               ; preds = %16
  %38 = load i32, i32* %4, align 4
  %39 = add nsw i32 %38, 1
  store i32 %39, i32* %4, align 4
  %40 = load double, double* %8, align 8
  %41 = call i32 (i8*, ...) @printf(i8* getelementptr inbounds ([7 x i8], [7 x i8]* @.str.1, i64 0, i64 0), double %40)
  br label %10

42:                                               ; preds = %10
  ret i32 0
}

declare dso_local i32 @__isoc99_scanf(i8*, ...) #1

declare dso_local i32 @printf(i8*, ...) #1


!llvm.module.flags = !{!0}
!llvm.ident = !{!1}

!0 = !{i32 1, !"wchar_size", i32 4}
!1 = !{!"clang version 10.0.0-4ubuntu1 "}
